; Function Attrs: nounwind uwtable
define dso_local void @spublishCommand(ptr noundef %0) local_unnamed_addr #2 {
  %2 = getelementptr inbounds nuw i8, ptr %0, i64 96
  %3 = load ptr, ptr %2, align 8, !tbaa !96
  %4 = getelementptr inbounds nuw i8, ptr %3, i64 8
  %5 = load ptr, ptr %4, align 8, !tbaa !33
  %6 = getelementptr inbounds nuw i8, ptr %3, i64 16
  %7 = load ptr, ptr %6, align 8, !tbaa !33
  %8 = tail call i32 @pubsubPublishMessageInternal(ptr noundef %5, ptr noundef %7, ptr noundef nonnull byval(%struct.pubsubtype) align 8 @pubSubShardType)
  %9 = load i32, ptr getelementptr inbounds nuw (i8, ptr @server, i64 7888), align 8, !tbaa !68
  %.not.i = icmp eq i32 %9, 0
  br i1 %.not.i, label %pubsubPublishMessageAndPropagateToCluster.exit.thread, label %pubsubPublishMessageAndPropagateToCluster.exit

pubsubPublishMessageAndPropagateToCluster.exit:   ; preds = %1
  tail call void @clusterPropagatePublish(ptr noundef %5, ptr noundef %7, i32 noundef 1) #9
  %.pr = load i32, ptr getelementptr inbounds nuw (i8, ptr @server, i64 7888), align 8, !tbaa !68
  %.not = icmp eq i32 %.pr, 0
  br i1 %.not, label %pubsubPublishMessageAndPropagateToCluster.exit.thread, label %10

pubsubPublishMessageAndPropagateToCluster.exit.thread: ; preds = %1, %pubsubPublishMessageAndPropagateToCluster.exit
  tail call void @forceCommandPropagation(ptr noundef nonnull %0, i32 noundef 2) #9
  br label %10

10:                                               ; preds = %pubsubPublishMessageAndPropagateToCluster.exit.thread, %pubsubPublishMessageAndPropagateToCluster.exit
  %11 = sext i32 %8 to i64
  tail call void @addReplyLongLong(ptr noundef nonnull %0, i64 noundef %11) #9
  ret void
}